Certificate:
    Data:
        Version: 3 (0x2)
        Serial Number: 2 (0x2)
    Signature Algorithm: sha1WithRSAEncryption
        Issuer: DC=org, DC=simple, O=Simple Inc, OU=Simple Root CA, CN=Simple Root CA
        Validity
            Not Before: May 23 09:18:01 2019 GMT
            Not After : May 22 09:18:01 2029 GMT
        Subject: DC=org, DC=simple, O=Simple Inc, OU=Simple Signing CA, CN=Simple Signing CA
        Subject Public Key Info:
            Public Key Algorithm: rsaEncryption
                Public-Key: (2048 bit)
                Modulus:
                    00:b3:49:93:04:ff:f5:d6:83:ea:e8:95:db:6e:59:
                    a3:e9:8e:2c:2f:c2:7a:cc:61:fb:8f:78:c4:95:2f:
                    fe:90:30:62:e3:d4:c7:e1:b8:36:a0:1e:0d:f0:7d:
                    d3:f1:e3:da:79:d3:42:c8:a9:81:20:f4:fd:73:ec:
                    bd:2f:ad:80:29:bb:74:f8:3f:73:ef:2a:97:76:cb:
                    07:01:c6:f5:f1:a6:d9:1f:6e:03:c8:92:93:ab:e6:
                    98:1b:e7:38:22:bb:ff:b4:e2:cf:00:04:2a:a1:31:
                    40:bf:45:2a:d7:13:1d:77:40:cc:4b:0d:22:51:08:
                    0a:c3:8c:8f:ba:c5:21:32:ef:ac:ef:fc:69:34:ec:
                    88:50:2d:e1:3d:0b:6c:66:ca:39:98:7d:95:8c:40:
                    d1:d7:76:2b:ba:8c:30:66:f8:91:82:7d:13:5e:6c:
                    09:77:9e:8a:e8:b5:3d:37:b7:1c:38:a2:05:35:b4:
                    90:0d:cc:b9:34:b3:b9:5d:6e:bd:b7:c9:1b:a6:3c:
                    58:ee:49:3d:b1:ec:b4:1b:d3:00:4c:83:f9:36:09:
                    a4:cd:26:3e:bb:18:2e:60:dc:ae:3a:ee:59:b0:7a:
                    09:d5:89:9b:ca:9b:75:df:f0:42:3a:6b:7f:58:e9:
                    71:b4:e9:cb:60:fc:c8:42:4f:48:dd:63:c6:6b:49:
                    4c:87
                Exponent: 65537 (0x10001)
        X509v3 extensions:
            X509v3 Key Usage: critical
                Certificate Sign, CRL Sign
            X509v3 Basic Constraints: critical
                CA:TRUE, pathlen:0
            X509v3 Subject Key Identifier: 
                37:39:53:9B:4A:7C:64:F0:CC:E3:9B:E3:06:C8:39:D2:6D:1E:2F:EB
            X509v3 Authority Key Identifier: 
                keyid:83:5E:2A:FD:64:9F:44:8B:A3:A6:3D:3C:3E:55:61:95:52:BC:41:BA

    Signature Algorithm: sha1WithRSAEncryption
         b3:81:02:6c:40:d7:4e:b8:83:c9:0c:9b:71:a5:21:a7:36:a5:
         8d:a0:d5:f4:cb:eb:03:cb:2b:dd:a0:84:7a:5d:1d:8c:c5:c6:
         7f:4f:d2:30:c2:0f:19:8f:f1:e1:00:66:5e:c5:79:dc:ce:05:
         e6:82:95:40:a7:db:7c:8a:30:8f:d9:39:7a:8d:a1:39:7d:17:
         c7:87:70:2e:22:6a:6f:4a:e9:82:33:78:75:0b:1c:ca:e9:21:
         ba:20:c7:52:74:e0:12:a1:0b:2d:c7:da:05:11:b7:d9:62:86:
         c3:10:ef:80:bb:15:1c:a8:2e:82:70:78:47:3c:89:ab:43:da:
         d9:9d:8d:81:c6:59:13:e6:ce:db:37:51:8e:8f:58:d4:12:b1:
         53:05:ac:3f:d0:bd:84:40:65:33:cb:ca:8d:9b:45:9d:a3:40:
         32:4d:3f:f8:91:c5:6f:0e:5e:80:f3:8f:1c:34:99:ca:5a:3d:
         a1:08:85:2c:a7:aa:18:d4:df:39:14:8b:c0:37:18:94:f4:ea:
         cd:86:1b:96:ed:fc:06:21:65:00:df:d9:e3:fe:79:36:cb:4e:
         ec:6c:bb:ec:7d:69:d5:51:14:af:6c:e5:9a:1f:ca:9c:8e:b3:
         5e:b4:f8:75:81:83:f8:d3:95:6e:31:f2:86:14:58:f7:3d:be:
         a2:6f:a2:e1
-----BEGIN CERTIFICATE-----
MIIDzzCCAregAwIBAgIBAjANBgkqhkiG9w0BAQUFADB0MRMwEQYKCZImiZPyLGQB
GRYDb3JnMRYwFAYKCZImiZPyLGQBGRYGc2ltcGxlMRMwEQYDVQQKDApTaW1wbGUg
SW5jMRcwFQYDVQQLDA5TaW1wbGUgUm9vdCBDQTEXMBUGA1UEAwwOU2ltcGxlIFJv
b3QgQ0EwHhcNMTkwNTIzMDkxODAxWhcNMjkwNTIyMDkxODAxWjB6MRMwEQYKCZIm
iZPyLGQBGRYDb3JnMRYwFAYKCZImiZPyLGQBGRYGc2ltcGxlMRMwEQYDVQQKDApT
aW1wbGUgSW5jMRowGAYDVQQLDBFTaW1wbGUgU2lnbmluZyBDQTEaMBgGA1UEAwwR
U2ltcGxlIFNpZ25pbmcgQ0EwggEiMA0GCSqGSIb3DQEBAQUAA4IBDwAwggEKAoIB
AQCzSZME//XWg+roldtuWaPpjiwvwnrMYfuPeMSVL/6QMGLj1MfhuDagHg3wfdPx
49p500LIqYEg9P1z7L0vrYApu3T4P3PvKpd2ywcBxvXxptkfbgPIkpOr5pgb5zgi
u/+04s8ABCqhMUC/RSrXEx13QMxLDSJRCArDjI+6xSEy76zv/Gk07IhQLeE9C2xm
yjmYfZWMQNHXdiu6jDBm+JGCfRNebAl3norotT03txw4ogU1tJANzLk0s7ldbr23
yRumPFjuST2x7LQb0wBMg/k2CaTNJj67GC5g3K467lmwegnViZvKm3Xf8EI6a39Y
6XG06ctg/MhCT0jdY8ZrSUyHAgMBAAGjZjBkMA4GA1UdDwEB/wQEAwIBBjASBgNV
HRMBAf8ECDAGAQH/AgEAMB0GA1UdDgQWBBQ3OVObSnxk8Mzjm+MGyDnSbR4v6zAf
BgNVHSMEGDAWgBSDXir9ZJ9Ei6OmPTw+VWGVUrxBujANBgkqhkiG9w0BAQUFAAOC
AQEAs4ECbEDXTriDyQybcaUhpzaljaDV9MvrA8sr3aCEel0djMXGf0/SMMIPGY/x
4QBmXsV53M4F5oKVQKfbfIowj9k5eo2hOX0Xx4dwLiJqb0rpgjN4dQscyukhuiDH
UnTgEqELLcfaBRG32WKGwxDvgLsVHKgugnB4RzyJq0Pa2Z2NgcZZE+bO2zdRjo9Y
1BKxUwWsP9C9hEBlM8vKjZtFnaNAMk0/+JHFbw5egPOPHDSZylo9oQiFLKeqGNTf
ORSLwDcYlPTqzYYblu38BiFlAN/Z4/55NstO7Gy77H1p1VEUr2zlmh/KnI6zXrT4
dYGD+NOVbjHyhhRY9z2+om+i4Q==
-----END CERTIFICATE-----
